target datalayout = "e-m:e-p270:32:32-p271:32:32-p272:64:64-i64:64-i128:128-f80:128-n8:16:32:64-S128"
target triple = "x86_64-pc-linux-gnu"

%struct.lv_ll_t = type { i32, ptr, ptr }
%struct._lv_spangroup_t = type { %struct._lv_obj_t, i32, i32, i32, i32, %struct.lv_ll_t, i8 }
%struct._lv_obj_t = type { ptr, ptr, ptr, ptr, ptr, %struct.lv_area_t, i32, i16, i16 }
%struct.lv_area_t = type { i32, i32, i32, i32 }
%struct.lv_point_t = type { i32, i32 }
%union.lv_style_value_t = type { ptr }
%struct._lv_span_coords_t = type { %struct.lv_area_t, %struct.lv_area_t, %struct.lv_area_t }

; Function Attrs: inlinehint nounwind uwtable
define internal i32 @lv_obj_get_style_pad_right(ptr noundef %0, i32 noundef %1) #3 {
  %3 = alloca ptr, align 8
  %4 = alloca i32, align 4
  %5 = alloca %union.lv_style_value_t, align 8
  store ptr %0, ptr %3, align 8, !tbaa !3
  store i32 %1, ptr %4, align 4, !tbaa !23
  call void @llvm.lifetime.start.p0(i64 8, ptr %5) #6
  %6 = load ptr, ptr %3, align 8, !tbaa !3
  %7 = load i32, ptr %4, align 4, !tbaa !23
  %8 = call ptr @lv_obj_get_style_prop(ptr noundef %6, i32 noundef %7, i8 noundef zeroext 19)
  %9 = getelementptr inbounds nuw %union.lv_style_value_t, ptr %5, i32 0, i32 0
  store ptr %8, ptr %9, align 8
  %10 = load i32, ptr %5, align 8, !tbaa !45
  call void @llvm.lifetime.end.p0(i64 8, ptr %5) #6
  ret i32 %10
}

; Function Attrs: inlinehint nounwind uwtable
define internal i32 @lv_obj_get_style_pad_top(ptr noundef %0, i32 noundef %1) #3 {
  %3 = alloca ptr, align 8
  %4 = alloca i32, align 4
  %5 = alloca %union.lv_style_value_t, align 8
  store ptr %0, ptr %3, align 8, !tbaa !3
  store i32 %1, ptr %4, align 4, !tbaa !23
  call void @llvm.lifetime.start.p0(i64 8, ptr %5) #6
  %6 = load ptr, ptr %3, align 8, !tbaa !3
  %7 = load i32, ptr %4, align 4, !tbaa !23
  %8 = call ptr @lv_obj_get_style_prop(ptr noundef %6, i32 noundef %7, i8 noundef zeroext 16)
  %9 = getelementptr inbounds nuw %union.lv_style_value_t, ptr %5, i32 0, i32 0
  store ptr %8, ptr %9, align 8
  %10 = load i32, ptr %5, align 8, !tbaa !45
  call void @llvm.lifetime.end.p0(i64 8, ptr %5) #6
  ret i32 %10
}

; Function Attrs: inlinehint nounwind uwtable
define internal i32 @lv_obj_get_style_pad_left(ptr noundef %0, i32 noundef %1) #3 {
  %3 = alloca ptr, align 8
  %4 = alloca i32, align 4
  %5 = alloca %union.lv_style_value_t, align 8
  store ptr %0, ptr %3, align 8, !tbaa !3
  store i32 %1, ptr %4, align 4, !tbaa !23
  call void @llvm.lifetime.start.p0(i64 8, ptr %5) #6
  %6 = load ptr, ptr %3, align 8, !tbaa !3
  %7 = load i32, ptr %4, align 4, !tbaa !23
  %8 = call ptr @lv_obj_get_style_prop(ptr noundef %6, i32 noundef %7, i8 noundef zeroext 18)
  %9 = getelementptr inbounds nuw %union.lv_style_value_t, ptr %5, i32 0, i32 0
  store ptr %8, ptr %9, align 8
  %10 = load i32, ptr %5, align 8, !tbaa !45
  call void @llvm.lifetime.end.p0(i64 8, ptr %5) #6
  ret i32 %10
}

; Function Attrs: nounwind uwtable
define i32 @lv_spangroup_get_indent(ptr noundef %0) #0 {
  %2 = alloca ptr, align 8
  %3 = alloca ptr, align 8
  store ptr %0, ptr %2, align 8, !tbaa !3
  br label %4

4:                                                ; preds = %1
  br label %5

5:                                                ; preds = %4
  call void @llvm.lifetime.start.p0(i64 8, ptr %3) #6
  %6 = load ptr, ptr %2, align 8, !tbaa !3
  store ptr %6, ptr %3, align 8, !tbaa !3
  %7 = load ptr, ptr %3, align 8, !tbaa !3
  %8 = getelementptr inbounds nuw %struct._lv_spangroup_t, ptr %7, i32 0, i32 2
  %9 = load i32, ptr %8, align 4, !tbaa !7
  call void @llvm.lifetime.end.p0(i64 8, ptr %3) #6
  ret i32 %9
}

; Function Attrs: nounwind uwtable
define ptr @lv_spangroup_get_span_by_point(ptr noundef %0, ptr noundef %1) #0 {
  %3 = alloca ptr, align 8
  %4 = alloca ptr, align 8
  %5 = alloca ptr, align 8
  %6 = alloca ptr, align 8
  %7 = alloca ptr, align 8
  %8 = alloca i32, align 4
  %9 = alloca i32, align 4
  %10 = alloca i32, align 4
  %11 = alloca %struct.lv_point_t, align 4
  %12 = alloca ptr, align 8
  %13 = alloca ptr, align 8
  %14 = alloca %struct._lv_span_coords_t, align 4
  %15 = alloca %struct.lv_area_t, align 4
  store ptr %0, ptr %4, align 8, !tbaa !3
  store ptr %1, ptr %5, align 8, !tbaa !3
  call void @llvm.lifetime.start.p0(i64 8, ptr %6) #6
  %16 = load ptr, ptr %4, align 8, !tbaa !3
  store ptr %16, ptr %6, align 8, !tbaa !3
  call void @llvm.lifetime.start.p0(i64 8, ptr %7) #6
  %17 = load ptr, ptr %6, align 8, !tbaa !3
  %18 = getelementptr inbounds nuw %struct._lv_spangroup_t, ptr %17, i32 0, i32 5
  store ptr %18, ptr %7, align 8, !tbaa !3
  call void @llvm.lifetime.start.p0(i64 4, ptr %8) #6
  %19 = load ptr, ptr %4, align 8, !tbaa !3
  %20 = call i32 @lv_obj_get_content_width(ptr noundef %19)
  store i32 %20, ptr %8, align 4, !tbaa !23
  call void @llvm.lifetime.start.p0(i64 4, ptr %9) #6
  %21 = load ptr, ptr %4, align 8, !tbaa !3
  %22 = call i32 @lv_spangroup_get_indent(ptr noundef %21)
  store i32 %22, ptr %9, align 4, !tbaa !23
  %23 = load ptr, ptr %4, align 8, !tbaa !3
  %24 = icmp eq ptr %23, null
  br i1 %24, label %32, label %25

25:                                               ; preds = %2
  %26 = load ptr, ptr %5, align 8, !tbaa !3
  %27 = icmp eq ptr %26, null
  br i1 %27, label %32, label %28

28:                                               ; preds = %25
  %29 = load ptr, ptr %7, align 8, !tbaa !3
  %30 = call ptr @lv_ll_get_head(ptr noundef %29)
  %31 = icmp eq ptr %30, null
  br i1 %31, label %32, label %33

32:                                               ; preds = %28, %25, %2
  store ptr null, ptr %3, align 8
  store i32 1, ptr %10, align 4
  br label %97

33:                                               ; preds = %28
  call void @llvm.lifetime.start.p0(i64 8, ptr %11) #6
  %34 = load ptr, ptr %5, align 8, !tbaa !3
  %35 = getelementptr inbounds nuw %struct.lv_point_t, ptr %34, i32 0, i32 0
  %36 = load i32, ptr %35, align 4, !tbaa !25
  %37 = load ptr, ptr %4, align 8, !tbaa !3
  %38 = getelementptr inbounds nuw %struct._lv_obj_t, ptr %37, i32 0, i32 5
  %39 = getelementptr inbounds nuw %struct.lv_area_t, ptr %38, i32 0, i32 0
  %40 = load i32, ptr %39, align 8, !tbaa !74
  %41 = sub nsw i32 %36, %40
  %42 = getelementptr inbounds nuw %struct.lv_point_t, ptr %11, i32 0, i32 0
  store i32 %41, ptr %42, align 4, !tbaa !25
  %43 = load ptr, ptr %5, align 8, !tbaa !3
  %44 = getelementptr inbounds nuw %struct.lv_point_t, ptr %43, i32 0, i32 1
  %45 = load i32, ptr %44, align 4, !tbaa !24
  %46 = load ptr, ptr %4, align 8, !tbaa !3
  %47 = getelementptr inbounds nuw %struct._lv_obj_t, ptr %46, i32 0, i32 5
  %48 = getelementptr inbounds nuw %struct.lv_area_t, ptr %47, i32 0, i32 1
  %49 = load i32, ptr %48, align 4, !tbaa !75
  %50 = sub nsw i32 %45, %49
  %51 = getelementptr inbounds nuw %struct.lv_point_t, ptr %11, i32 0, i32 1
  store i32 %50, ptr %51, align 4, !tbaa !24
  call void @llvm.lifetime.start.p0(i64 8, ptr %12) #6
  store ptr null, ptr %12, align 8, !tbaa !3
  call void @llvm.lifetime.start.p0(i64 8, ptr %13) #6
  %52 = load ptr, ptr %7, align 8, !tbaa !3
  %53 = call ptr @lv_ll_get_head(ptr noundef %52)
  store ptr %53, ptr %13, align 8, !tbaa !3
  br label %54

54:                                               ; preds = %91, %33
  %55 = load ptr, ptr %13, align 8, !tbaa !3
  %56 = icmp ne ptr %55, null
  br i1 %56, label %57, label %95

57:                                               ; preds = %54
  call void @llvm.lifetime.start.p0(i64 48, ptr %14) #6
  %58 = load ptr, ptr %12, align 8, !tbaa !3
  %59 = load ptr, ptr %13, align 8, !tbaa !3
  %60 = load i32, ptr %8, align 4, !tbaa !23
  %61 = getelementptr inbounds nuw %struct.lv_area_t, ptr %15, i32 0, i32 0
  %62 = load ptr, ptr %4, align 8, !tbaa !3
  %63 = call i32 @lv_obj_get_style_pad_left(ptr noundef %62, i32 noundef 0)
  store i32 %63, ptr %61, align 4, !tbaa !63
  %64 = getelementptr inbounds nuw %struct.lv_area_t, ptr %15, i32 0, i32 1
  %65 = load ptr, ptr %4, align 8, !tbaa !3
  %66 = call i32 @lv_obj_get_style_pad_top(ptr noundef %65, i32 noundef 0)
  store i32 %66, ptr %64, align 4, !tbaa !64
  %67 = getelementptr inbounds nuw %struct.lv_area_t, ptr %15, i32 0, i32 2
  %68 = load ptr, ptr %4, align 8, !tbaa !3
  %69 = call i32 @lv_obj_get_style_pad_right(ptr noundef %68, i32 noundef 0)
  store i32 %69, ptr %67, align 4, !tbaa !65
  %70 = getelementptr inbounds nuw %struct.lv_area_t, ptr %15, i32 0, i32 3
  store i32 0, ptr %70, align 4, !tbaa !66
  %71 = load i32, ptr %9, align 4, !tbaa !23
  %72 = getelementptr inbounds nuw { i64, i64 }, ptr %15, i32 0, i32 0
  %73 = load i64, ptr %72, align 4
  %74 = getelementptr inbounds nuw { i64, i64 }, ptr %15, i32 0, i32 1
  %75 = load i64, ptr %74, align 4
  call void @make_span_coords(ptr dead_on_unwind writable sret(%struct._lv_span_coords_t) align 4 %14, ptr noundef %58, ptr noundef %59, i32 noundef %60, i64 %73, i64 %75, i32 noundef %71)
  %76 = getelementptr inbounds nuw %struct._lv_span_coords_t, ptr %14, i32 0, i32 0
  %77 = call zeroext i1 @lv_area_is_point_on(ptr noundef %76, ptr noundef %11, i32 noundef 0)
  br i1 %77, label %84, label %78

78:                                               ; preds = %57
  %79 = getelementptr inbounds nuw %struct._lv_span_coords_t, ptr %14, i32 0, i32 1
  %80 = call zeroext i1 @lv_area_is_point_on(ptr noundef %79, ptr noundef %11, i32 noundef 0)
  br i1 %80, label %84, label %81

81:                                               ; preds = %78
  %82 = getelementptr inbounds nuw %struct._lv_span_coords_t, ptr %14, i32 0, i32 2
  %83 = call zeroext i1 @lv_area_is_point_on(ptr noundef %82, ptr noundef %11, i32 noundef 0)
  br i1 %83, label %84, label %86

84:                                               ; preds = %81, %78, %57
  %85 = load ptr, ptr %13, align 8, !tbaa !3
  store ptr %85, ptr %3, align 8
  store i32 1, ptr %10, align 4
  br label %88

86:                                               ; preds = %81
  %87 = load ptr, ptr %13, align 8, !tbaa !3
  store ptr %87, ptr %12, align 8, !tbaa !3
  store i32 0, ptr %10, align 4
  br label %88

88:                                               ; preds = %86, %84
  call void @llvm.lifetime.end.p0(i64 48, ptr %14) #6
  %89 = load i32, ptr %10, align 4
  switch i32 %89, label %96 [
    i32 0, label %90
  ]

90:                                               ; preds = %88
  br label %91

91:                                               ; preds = %90
  %92 = load ptr, ptr %7, align 8, !tbaa !3
  %93 = load ptr, ptr %13, align 8, !tbaa !3
  %94 = call ptr @lv_ll_get_next(ptr noundef %92, ptr noundef %93)
  store ptr %94, ptr %13, align 8, !tbaa !3
  br label %54, !llvm.loop !76

95:                                               ; preds = %54
  store ptr null, ptr %3, align 8
  store i32 1, ptr %10, align 4
  br label %96

96:                                               ; preds = %95, %88
  call void @llvm.lifetime.end.p0(i64 8, ptr %13) #6
  call void @llvm.lifetime.end.p0(i64 8, ptr %12) #6
  call void @llvm.lifetime.end.p0(i64 8, ptr %11) #6
  br label %97

97:                                               ; preds = %96, %32
  call void @llvm.lifetime.end.p0(i64 4, ptr %9) #6
  call void @llvm.lifetime.end.p0(i64 4, ptr %8) #6
  call void @llvm.lifetime.end.p0(i64 8, ptr %7) #6
  call void @llvm.lifetime.end.p0(i64 8, ptr %6) #6
  %98 = load ptr, ptr %3, align 8
  ret ptr %98
}