; Function Attrs: nounwind uwtable
define ptr @lv_spangroup_get_span_by_point(ptr noundef %0, ptr noundef readonly %1) local_unnamed_addr #0 {
  %3 = alloca %struct.lv_point_t, align 4
  %4 = alloca %struct._lv_span_coords_t, align 4
  %5 = getelementptr inbounds nuw i8, ptr %0, i64 80
  %6 = tail call i32 @lv_obj_get_content_width(ptr noundef %0) #8
  %7 = getelementptr inbounds nuw i8, ptr %0, i64 68
  %8 = load i32, ptr %7, align 4, !tbaa !3
  %9 = icmp eq ptr %0, null
  %10 = icmp eq ptr %1, null
  %or.cond = or i1 %9, %10
  br i1 %or.cond, label %41, label %11

11:                                               ; preds = %2
  %12 = tail call ptr @lv_ll_get_head(ptr noundef nonnull %5) #8
  %13 = icmp eq ptr %12, null
  br i1 %13, label %41, label %14

14:                                               ; preds = %11
  call void @llvm.lifetime.start.p0(i64 8, ptr nonnull %3) #8
  %15 = load i32, ptr %1, align 4, !tbaa !56
  %16 = getelementptr inbounds nuw i8, ptr %0, i64 40
  %17 = load i32, ptr %16, align 8, !tbaa !89
  %18 = sub nsw i32 %15, %17
  store i32 %18, ptr %3, align 4, !tbaa !56
  %19 = getelementptr inbounds nuw i8, ptr %1, i64 4
  %20 = load i32, ptr %19, align 4, !tbaa !57
  %21 = getelementptr inbounds nuw i8, ptr %0, i64 44
  %22 = load i32, ptr %21, align 4, !tbaa !90
  %23 = sub nsw i32 %20, %22
  %24 = getelementptr inbounds nuw i8, ptr %3, i64 4
  store i32 %23, ptr %24, align 4, !tbaa !57
  %25 = tail call ptr @lv_ll_get_head(ptr noundef nonnull %5) #8
  %.not39 = icmp eq ptr %25, null
  br i1 %.not39, label %.loopexit, label %.lr.ph

.lr.ph:                                           ; preds = %14
  %26 = getelementptr inbounds nuw i8, ptr %4, i64 16
  %27 = getelementptr inbounds nuw i8, ptr %4, i64 32
  br label %28

28:                                               ; preds = %.lr.ph, %39
  %.02741 = phi ptr [ null, %.lr.ph ], [ %.02940, %39 ]
  %.02940 = phi ptr [ %25, %.lr.ph ], [ %40, %39 ]
  call void @llvm.lifetime.start.p0(i64 48, ptr nonnull %4) #8
  %29 = call ptr @lv_obj_get_style_prop(ptr noundef nonnull %0, i32 noundef 0, i8 noundef zeroext 18) #8
  %30 = ptrtoint ptr %29 to i64
  %31 = call ptr @lv_obj_get_style_prop(ptr noundef nonnull %0, i32 noundef 0, i8 noundef zeroext 16) #8
  %32 = ptrtoint ptr %31 to i64
  %33 = call ptr @lv_obj_get_style_prop(ptr noundef nonnull %0, i32 noundef 0, i8 noundef zeroext 19) #8
  %.sroa.2.0.insert.ext = shl i64 %32, 32
  %.sroa.0.0.insert.ext = and i64 %30, 4294967295
  %.sroa.0.0.insert.insert = or disjoint i64 %.sroa.2.0.insert.ext, %.sroa.0.0.insert.ext
  call fastcc void @make_span_coords(ptr dead_on_unwind noalias nonnull writable align 4 %4, ptr noundef %.02741, ptr noundef nonnull %.02940, i32 noundef %6, i64 %.sroa.0.0.insert.insert, i32 noundef %8)
  %34 = call zeroext i1 @lv_area_is_point_on(ptr noundef nonnull %4, ptr noundef nonnull %3, i32 noundef 0) #8
  br i1 %34, label %.thread, label %35

35:                                               ; preds = %28
  %36 = call zeroext i1 @lv_area_is_point_on(ptr noundef nonnull %26, ptr noundef nonnull %3, i32 noundef 0) #8
  br i1 %36, label %.thread, label %37

37:                                               ; preds = %35
  %38 = call zeroext i1 @lv_area_is_point_on(ptr noundef nonnull %27, ptr noundef nonnull %3, i32 noundef 0) #8
  br i1 %38, label %.thread, label %39

.thread:                                          ; preds = %37, %35, %28
  call void @llvm.lifetime.end.p0(i64 48, ptr nonnull %4) #8
  br label %.loopexit

39:                                               ; preds = %37
  call void @llvm.lifetime.end.p0(i64 48, ptr nonnull %4) #8
  %40 = call ptr @lv_ll_get_next(ptr noundef nonnull %5, ptr noundef nonnull %.02940) #8
  %.not = icmp eq ptr %40, null
  br i1 %.not, label %.loopexit, label %28, !llvm.loop !91

.loopexit:                                        ; preds = %39, %14, %.thread
  %.02938 = phi ptr [ %.02940, %.thread ], [ null, %14 ], [ null, %39 ]
  call void @llvm.lifetime.end.p0(i64 8, ptr nonnull %3) #8
  br label %41

41:                                               ; preds = %2, %11, %.loopexit
  %.0 = phi ptr [ %.02938, %.loopexit ], [ null, %11 ], [ null, %2 ]
  ret ptr %.0
}